; Function Attrs: nounwind uwtable
define internal fastcc nonnull ptr @hook_reentrantp() unnamed_addr #0 {
  %1 = load i8, ptr @je_tsd_booted, align 1, !tbaa !22, !range !24, !noundef !25
  %2 = trunc nuw i8 %1 to i1
  br i1 %2, label %3, label %tsdn_in_hookp_get.exit

3:                                                ; preds = %0
  %4 = tail call nonnull align 8 ptr @llvm.threadlocal.address.p0(ptr align 8 @je_tsd_tls)
  %5 = getelementptr inbounds nuw i8, ptr %4, i64 888
  %6 = load i8, ptr %5, align 8, !tbaa !27
  %.not.i = icmp eq i8 %6, 0
  br i1 %.not.i, label %tsdn_fetch.exit.thread8, label %tsdn_fetch.exit, !prof !21

tsdn_fetch.exit:                                  ; preds = %3
  %7 = tail call ptr @je_tsd_fetch_slow(ptr noundef nonnull %4, i1 noundef zeroext false) #6
  %8 = icmp eq ptr %7, null
  br i1 %8, label %tsdn_in_hookp_get.exit, label %tsdn_fetch.exit.thread8

tsdn_fetch.exit.thread8:                          ; preds = %3, %tsdn_fetch.exit
  %.0.i10 = phi ptr [ %7, %tsdn_fetch.exit ], [ %4, %3 ]
  %9 = getelementptr inbounds nuw i8, ptr %.0.i10, i64 224
  br label %tsdn_in_hookp_get.exit

tsdn_in_hookp_get.exit:                           ; preds = %0, %tsdn_fetch.exit, %tsdn_fetch.exit.thread8
  %.0.i5 = phi ptr [ %9, %tsdn_fetch.exit.thread8 ], [ null, %tsdn_fetch.exit ], [ null, %0 ]
  %.not = icmp eq ptr %.0.i5, null
  %hook_reentrantp.in_hook_global. = select i1 %.not, ptr @hook_reentrantp.in_hook_global, ptr %.0.i5
  ret ptr %hook_reentrantp.in_hook_global.
}